target datalayout = "e-m:e-p270:32:32-p271:32:32-p272:64:64-i64:64-i128:128-f80:128-n8:16:32:64-S128"
target triple = "x86_64-pc-linux-gnu"

%struct.Gli_Man_t_ = type { ptr, ptr, ptr, ptr, ptr, i32, i32, i32, i32, i32, ptr, ptr }
%struct.Vec_Int_t_ = type { i32, i32, ptr }
%struct.Gli_Obj_t_ = type { i32, i32, ptr, i32, %union.anon, %union.anon.0, [0 x i32] }
%union.anon = type { i32 }
%union.anon.0 = type { i32 }

; Function Attrs: inlinehint nounwind uwtable
define internal i32 @Abc_InfoHasBit(ptr noundef %0, i32 noundef %1) #3 {
  %3 = alloca ptr, align 8
  %4 = alloca i32, align 4
  store ptr %0, ptr %3, align 8, !tbaa !60
  store i32 %1, ptr %4, align 4, !tbaa !3
  %5 = load ptr, ptr %3, align 8, !tbaa !60
  %6 = load i32, ptr %4, align 4, !tbaa !3
  %7 = ashr i32 %6, 5
  %8 = sext i32 %7 to i64
  %9 = getelementptr inbounds i32, ptr %5, i64 %8
  %10 = load i32, ptr %9, align 4, !tbaa !3
  %11 = load i32, ptr %4, align 4, !tbaa !3
  %12 = and i32 %11, 31
  %13 = shl i32 1, %12
  %14 = and i32 %10, %13
  %15 = icmp ugt i32 %14, 0
  %16 = zext i1 %15 to i32
  ret i32 %16
}

; Function Attrs: inlinehint nounwind uwtable
define internal ptr @Gli_ObjFanin(ptr noundef %0, i32 noundef %1) #3 {
  %3 = alloca ptr, align 8
  %4 = alloca i32, align 4
  store ptr %0, ptr %3, align 8, !tbaa !27
  store i32 %1, ptr %4, align 4, !tbaa !3
  %5 = load ptr, ptr %3, align 8, !tbaa !27
  %6 = load ptr, ptr %3, align 8, !tbaa !27
  %7 = getelementptr inbounds nuw %struct.Gli_Obj_t_, ptr %6, i32 0, i32 6
  %8 = load i32, ptr %4, align 4, !tbaa !3
  %9 = sext i32 %8 to i64
  %10 = getelementptr inbounds [0 x i32], ptr %7, i64 0, i64 %9
  %11 = load i32, ptr %10, align 4, !tbaa !3
  %12 = sext i32 %11 to i64
  %13 = sub i64 0, %12
  %14 = getelementptr inbounds i32, ptr %5, i64 %13
  ret ptr %14
}

; Function Attrs: inlinehint nounwind uwtable
define internal i32 @Gli_ObjSize(ptr noundef %0) #3 {
  %2 = alloca ptr, align 8
  store ptr %0, ptr %2, align 8, !tbaa !27
  %3 = load ptr, ptr %2, align 8, !tbaa !27
  %4 = load i32, ptr %3, align 8
  %5 = lshr i32 %4, 4
  %6 = and i32 %5, 7
  %7 = zext i32 %6 to i64
  %8 = add i64 8, %7
  %9 = load ptr, ptr %2, align 8, !tbaa !27
  %10 = load i32, ptr %9, align 8
  %11 = lshr i32 %10, 7
  %12 = zext i32 %11 to i64
  %13 = add i64 %8, %12
  %14 = trunc i64 %13 to i32
  ret i32 %14
}

; Function Attrs: inlinehint nounwind uwtable
define internal i32 @Gli_NodeComputeValue(ptr noundef %0) #3 {
  %2 = alloca ptr, align 8
  %3 = alloca i32, align 4
  %4 = alloca i32, align 4
  store ptr %0, ptr %2, align 8, !tbaa !27
  call void @llvm.lifetime.start.p0(i64 4, ptr %3) #10
  call void @llvm.lifetime.start.p0(i64 4, ptr %4) #10
  store i32 0, ptr %4, align 4, !tbaa !3
  store i32 0, ptr %3, align 4, !tbaa !3
  br label %5

5:                                                ; preds = %23, %1
  %6 = load i32, ptr %3, align 4, !tbaa !3
  %7 = load ptr, ptr %2, align 8, !tbaa !27
  %8 = load i32, ptr %7, align 8
  %9 = lshr i32 %8, 4
  %10 = and i32 %9, 7
  %11 = icmp slt i32 %6, %10
  br i1 %11, label %12, label %26

12:                                               ; preds = %5
  %13 = load ptr, ptr %2, align 8, !tbaa !27
  %14 = load i32, ptr %3, align 4, !tbaa !3
  %15 = call ptr @Gli_ObjFanin(ptr noundef %13, i32 noundef %14)
  %16 = load i32, ptr %15, align 8
  %17 = lshr i32 %16, 1
  %18 = and i32 %17, 1
  %19 = load i32, ptr %3, align 4, !tbaa !3
  %20 = shl i32 %18, %19
  %21 = load i32, ptr %4, align 4, !tbaa !3
  %22 = or i32 %21, %20
  store i32 %22, ptr %4, align 4, !tbaa !3
  br label %23

23:                                               ; preds = %12
  %24 = load i32, ptr %3, align 4, !tbaa !3
  %25 = add nsw i32 %24, 1
  store i32 %25, ptr %3, align 4, !tbaa !3
  br label %5, !llvm.loop !43

26:                                               ; preds = %5
  %27 = load ptr, ptr %2, align 8, !tbaa !27
  %28 = getelementptr inbounds nuw %struct.Gli_Obj_t_, ptr %27, i32 0, i32 2
  %29 = load ptr, ptr %28, align 8, !tbaa !42
  %30 = load i32, ptr %4, align 4, !tbaa !3
  %31 = call i32 @Abc_InfoHasBit(ptr noundef %29, i32 noundef %30)
  call void @llvm.lifetime.end.p0(i64 4, ptr %4) #10
  call void @llvm.lifetime.end.p0(i64 4, ptr %3) #10
  ret i32 %31
}

; Function Attrs: inlinehint nounwind uwtable
define internal i32 @Gli_ObjIsTerm(ptr noundef %0) #3 {
  %2 = alloca ptr, align 8
  store ptr %0, ptr %2, align 8, !tbaa !27
  %3 = load ptr, ptr %2, align 8, !tbaa !27
  %4 = load i32, ptr %3, align 8
  %5 = and i32 %4, 1
  ret i32 %5
}

; Function Attrs: inlinehint nounwind uwtable
define internal ptr @Gli_ManObj(ptr noundef %0, i32 noundef %1) #3 {
  %3 = alloca ptr, align 8
  %4 = alloca i32, align 4
  store ptr %0, ptr %3, align 8, !tbaa !7
  store i32 %1, ptr %4, align 4, !tbaa !3
  %5 = load ptr, ptr %3, align 8, !tbaa !7
  %6 = getelementptr inbounds nuw %struct.Gli_Man_t_, ptr %5, i32 0, i32 10
  %7 = load ptr, ptr %6, align 8, !tbaa !20
  %8 = load i32, ptr %4, align 4, !tbaa !3
  %9 = sext i32 %8 to i64
  %10 = getelementptr inbounds i32, ptr %7, i64 %9
  ret ptr %10
}

; Function Attrs: inlinehint nounwind uwtable
define internal i32 @Vec_IntEntry(ptr noundef %0, i32 noundef %1) #3 {
  %3 = alloca ptr, align 8
  %4 = alloca i32, align 4
  store ptr %0, ptr %3, align 8, !tbaa !21
  store i32 %1, ptr %4, align 4, !tbaa !3
  %5 = load ptr, ptr %3, align 8, !tbaa !21
  %6 = getelementptr inbounds nuw %struct.Vec_Int_t_, ptr %5, i32 0, i32 2
  %7 = load ptr, ptr %6, align 8, !tbaa !25
  %8 = load i32, ptr %4, align 4, !tbaa !3
  %9 = sext i32 %8 to i64
  %10 = getelementptr inbounds i32, ptr %7, i64 %9
  %11 = load i32, ptr %10, align 4, !tbaa !3
  ret i32 %11
}

; Function Attrs: inlinehint nounwind uwtable
define internal i32 @Vec_IntSize(ptr noundef %0) #3 {
  %2 = alloca ptr, align 8
  store ptr %0, ptr %2, align 8, !tbaa !21
  %3 = load ptr, ptr %2, align 8, !tbaa !21
  %4 = getelementptr inbounds nuw %struct.Vec_Int_t_, ptr %3, i32 0, i32 1
  %5 = load i32, ptr %4, align 4, !tbaa !22
  ret i32 %5
}

; Function Attrs: nounwind uwtable
define void @Gli_ManSetDataSaved(ptr noundef %0, i32 noundef %1) #0 {
  %3 = alloca ptr, align 8
  %4 = alloca i32, align 4
  %5 = alloca ptr, align 8
  %6 = alloca i32, align 4
  store ptr %0, ptr %3, align 8, !tbaa !7
  store i32 %1, ptr %4, align 4, !tbaa !3
  call void @llvm.lifetime.start.p0(i64 8, ptr %5) #10
  call void @llvm.lifetime.start.p0(i64 4, ptr %6) #10
  store i32 0, ptr %6, align 4, !tbaa !3
  br label %7

7:                                                ; preds = %48, %2
  %8 = load i32, ptr %6, align 4, !tbaa !3
  %9 = load ptr, ptr %3, align 8, !tbaa !7
  %10 = getelementptr inbounds nuw %struct.Gli_Man_t_, ptr %9, i32 0, i32 0
  %11 = load ptr, ptr %10, align 8, !tbaa !14
  %12 = call i32 @Vec_IntSize(ptr noundef %11)
  %13 = icmp slt i32 %8, %12
  br i1 %13, label %14, label %23

14:                                               ; preds = %7
  %15 = load ptr, ptr %3, align 8, !tbaa !7
  %16 = load ptr, ptr %3, align 8, !tbaa !7
  %17 = getelementptr inbounds nuw %struct.Gli_Man_t_, ptr %16, i32 0, i32 0
  %18 = load ptr, ptr %17, align 8, !tbaa !14
  %19 = load i32, ptr %6, align 4, !tbaa !3
  %20 = call i32 @Vec_IntEntry(ptr noundef %18, i32 noundef %19)
  %21 = call ptr @Gli_ManObj(ptr noundef %15, i32 noundef %20)
  store ptr %21, ptr %5, align 8, !tbaa !27
  %22 = icmp ne ptr %21, null
  br label %23

23:                                               ; preds = %14, %7
  %24 = phi i1 [ false, %7 ], [ %22, %14 ]
  br i1 %24, label %25, label %51

25:                                               ; preds = %23
  %26 = load ptr, ptr %3, align 8, !tbaa !7
  %27 = getelementptr inbounds nuw %struct.Gli_Man_t_, ptr %26, i32 0, i32 11
  %28 = load ptr, ptr %27, align 8, !tbaa !26
  %29 = load i32, ptr %6, align 4, !tbaa !3
  %30 = sext i32 %29 to i64
  %31 = getelementptr inbounds i32, ptr %28, i64 %30
  %32 = load i32, ptr %31, align 4, !tbaa !3
  %33 = load i32, ptr %4, align 4, !tbaa !3
  %34 = lshr i32 %32, %33
  %35 = and i32 %34, 1
  %36 = load ptr, ptr %5, align 8, !tbaa !27
  %37 = load i32, ptr %36, align 8
  %38 = and i32 %35, 1
  %39 = shl i32 %38, 2
  %40 = and i32 %37, -5
  %41 = or i32 %40, %39
  store i32 %41, ptr %36, align 8
  %42 = load ptr, ptr %5, align 8, !tbaa !27
  %43 = load i32, ptr %42, align 8
  %44 = and i32 %38, 1
  %45 = shl i32 %44, 1
  %46 = and i32 %43, -3
  %47 = or i32 %46, %45
  store i32 %47, ptr %42, align 8
  br label %48

48:                                               ; preds = %25
  %49 = load i32, ptr %6, align 4, !tbaa !3
  %50 = add nsw i32 %49, 1
  store i32 %50, ptr %6, align 4, !tbaa !3
  br label %7, !llvm.loop !70

51:                                               ; preds = %23
  store i32 0, ptr %6, align 4, !tbaa !3
  br label %52

52:                                               ; preds = %86, %51
  %53 = load i32, ptr %6, align 4, !tbaa !3
  %54 = load ptr, ptr %3, align 8, !tbaa !7
  %55 = getelementptr inbounds nuw %struct.Gli_Man_t_, ptr %54, i32 0, i32 9
  %56 = load i32, ptr %55, align 8, !tbaa !19
  %57 = icmp slt i32 %53, %56
  br i1 %57, label %58, label %63

58:                                               ; preds = %52
  %59 = load ptr, ptr %3, align 8, !tbaa !7
  %60 = load i32, ptr %6, align 4, !tbaa !3
  %61 = call ptr @Gli_ManObj(ptr noundef %59, i32 noundef %60)
  store ptr %61, ptr %5, align 8, !tbaa !27
  %62 = icmp ne ptr %61, null
  br label %63

63:                                               ; preds = %58, %52
  %64 = phi i1 [ false, %52 ], [ %62, %58 ]
  br i1 %64, label %65, label %91

65:                                               ; preds = %63
  %66 = load ptr, ptr %5, align 8, !tbaa !27
  %67 = call i32 @Gli_ObjIsTerm(ptr noundef %66)
  %68 = icmp ne i32 %67, 0
  br i1 %68, label %69, label %70

69:                                               ; preds = %65
  br label %85

70:                                               ; preds = %65
  %71 = load ptr, ptr %5, align 8, !tbaa !27
  %72 = call i32 @Gli_NodeComputeValue(ptr noundef %71)
  %73 = load ptr, ptr %5, align 8, !tbaa !27
  %74 = load i32, ptr %73, align 8
  %75 = and i32 %72, 1
  %76 = shl i32 %75, 2
  %77 = and i32 %74, -5
  %78 = or i32 %77, %76
  store i32 %78, ptr %73, align 8
  %79 = load ptr, ptr %5, align 8, !tbaa !27
  %80 = load i32, ptr %79, align 8
  %81 = and i32 %75, 1
  %82 = shl i32 %81, 1
  %83 = and i32 %80, -3
  %84 = or i32 %83, %82
  store i32 %84, ptr %79, align 8
  br label %85

85:                                               ; preds = %70, %69
  br label %86

86:                                               ; preds = %85
  %87 = load ptr, ptr %5, align 8, !tbaa !27
  %88 = call i32 @Gli_ObjSize(ptr noundef %87)
  %89 = load i32, ptr %6, align 4, !tbaa !3
  %90 = add nsw i32 %89, %88
  store i32 %90, ptr %6, align 4, !tbaa !3
  br label %52, !llvm.loop !71

91:                                               ; preds = %63
  call void @llvm.lifetime.end.p0(i64 4, ptr %6) #10
  call void @llvm.lifetime.end.p0(i64 8, ptr %5) #10
  ret void
}