; Function Attrs: nofree norecurse nosync nounwind memory(readwrite, inaccessiblemem: none) uwtable
define void @Gli_ManSetDataSaved(ptr noundef readonly captures(none) %0, i32 noundef %1) local_unnamed_addr #7 {
  %3 = getelementptr i8, ptr %0, i64 64
  %4 = load ptr, ptr %0, align 8, !tbaa !15
  %5 = getelementptr i8, ptr %4, i64 4
  %.val2831 = load i32, ptr %5, align 4, !tbaa !11
  %6 = icmp sgt i32 %.val2831, 0
  br i1 %6, label %.lr.ph, label %.critedge

.lr.ph:                                           ; preds = %2
  %7 = getelementptr inbounds nuw i8, ptr %0, i64 72
  br label %8

8:                                                ; preds = %.lr.ph, %10
  %indvars.iv = phi i64 [ 0, %.lr.ph ], [ %indvars.iv.next, %10 ]
  %9 = phi ptr [ %4, %.lr.ph ], [ %27, %10 ]
  %.val26 = load ptr, ptr %3, align 8, !tbaa !21
  %.not = icmp eq ptr %.val26, null
  br i1 %.not, label %.critedge, label %10

10:                                               ; preds = %8
  %11 = getelementptr i8, ptr %9, i64 8
  %.val29 = load ptr, ptr %11, align 8, !tbaa !14
  %12 = getelementptr inbounds nuw i32, ptr %.val29, i64 %indvars.iv
  %13 = load i32, ptr %12, align 4, !tbaa !26
  %14 = sext i32 %13 to i64
  %15 = getelementptr inbounds i32, ptr %.val26, i64 %14
  %16 = load ptr, ptr %7, align 8, !tbaa !22
  %17 = getelementptr inbounds nuw i32, ptr %16, i64 %indvars.iv
  %18 = load i32, ptr %17, align 4, !tbaa !26
  %19 = lshr i32 %18, %1
  %20 = and i32 %19, 1
  %21 = load i32, ptr %15, align 8
  %22 = shl nuw nsw i32 %20, 2
  %23 = and i32 %21, -7
  %24 = or disjoint i32 %22, %23
  %25 = shl nuw nsw i32 %20, 1
  %26 = or disjoint i32 %24, %25
  store i32 %26, ptr %15, align 8
  %indvars.iv.next = add nuw nsw i64 %indvars.iv, 1
  %27 = load ptr, ptr %0, align 8, !tbaa !15
  %28 = getelementptr i8, ptr %27, i64 4
  %.val28 = load i32, ptr %28, align 4, !tbaa !11
  %29 = sext i32 %.val28 to i64
  %30 = icmp slt i64 %indvars.iv.next, %29
  br i1 %30, label %8, label %.critedge, !llvm.loop !59

.critedge:                                        ; preds = %8, %10, %2
  %31 = getelementptr inbounds nuw i8, ptr %0, i64 56
  %32 = load i32, ptr %31, align 8, !tbaa !20
  %33 = icmp sgt i32 %32, 0
  br i1 %33, label %.lr.ph35, label %.critedge2

.lr.ph35:                                         ; preds = %.critedge, %69
  %34 = phi i32 [ %70, %69 ], [ %32, %.critedge ]
  %.134 = phi i32 [ %75, %69 ], [ 0, %.critedge ]
  %.val = load ptr, ptr %3, align 8, !tbaa !21
  %35 = zext nneg i32 %.134 to i64
  %36 = getelementptr inbounds nuw i32, ptr %.val, i64 %35
  %.not24 = icmp eq ptr %.val, null
  br i1 %.not24, label %.critedge2, label %37

37:                                               ; preds = %.lr.ph35
  %.val30 = load i32, ptr %36, align 8
  %38 = and i32 %.val30, 1
  %.not25 = icmp eq i32 %38, 0
  br i1 %.not25, label %39, label %69

39:                                               ; preds = %37
  %40 = lshr i32 %.val30, 4
  %41 = and i32 %40, 7
  %.not.i = icmp eq i32 %41, 0
  br i1 %.not.i, label %Gli_NodeComputeValue.exit, label %.lr.ph.i

.lr.ph.i:                                         ; preds = %39
  %42 = getelementptr inbounds nuw i8, ptr %36, i64 28
  %wide.trip.count.i = zext nneg i32 %41 to i64
  br label %43

43:                                               ; preds = %43, %.lr.ph.i
  %indvars.iv.i = phi i64 [ 0, %.lr.ph.i ], [ %indvars.iv.next.i, %43 ]
  %.010.i = phi i32 [ 0, %.lr.ph.i ], [ %54, %43 ]
  %44 = getelementptr inbounds nuw [0 x i32], ptr %42, i64 0, i64 %indvars.iv.i
  %45 = load i32, ptr %44, align 4, !tbaa !26
  %46 = sext i32 %45 to i64
  %47 = sub nsw i64 0, %46
  %48 = getelementptr inbounds i32, ptr %36, i64 %47
  %49 = load i32, ptr %48, align 8
  %50 = lshr i32 %49, 1
  %51 = and i32 %50, 1
  %52 = trunc nuw nsw i64 %indvars.iv.i to i32
  %53 = shl nuw nsw i32 %51, %52
  %54 = or i32 %53, %.010.i
  %indvars.iv.next.i = add nuw nsw i64 %indvars.iv.i, 1
  %exitcond.not.i = icmp eq i64 %indvars.iv.next.i, %wide.trip.count.i
  br i1 %exitcond.not.i, label %Gli_NodeComputeValue.exit, label %43, !llvm.loop !37

Gli_NodeComputeValue.exit:                        ; preds = %43, %39
  %.0.lcssa.i = phi i32 [ 0, %39 ], [ %54, %43 ]
  %55 = getelementptr inbounds nuw i8, ptr %36, i64 8
  %56 = load ptr, ptr %55, align 8, !tbaa !36
  %57 = ashr i32 %.0.lcssa.i, 5
  %58 = sext i32 %57 to i64
  %59 = getelementptr inbounds i32, ptr %56, i64 %58
  %60 = load i32, ptr %59, align 4, !tbaa !26
  %61 = and i32 %.0.lcssa.i, 31
  %62 = lshr i32 %60, %61
  %63 = and i32 %62, 1
  %64 = shl nuw nsw i32 %63, 2
  %65 = and i32 %.val30, -8
  %66 = or disjoint i32 %64, %65
  %67 = shl nuw nsw i32 %63, 1
  %68 = or disjoint i32 %66, %67
  store i32 %68, ptr %36, align 8
  %.pre = load i32, ptr %31, align 8, !tbaa !20
  br label %69

69:                                               ; preds = %Gli_NodeComputeValue.exit, %37
  %70 = phi i32 [ %.pre, %Gli_NodeComputeValue.exit ], [ %34, %37 ]
  %.val27 = phi i32 [ %68, %Gli_NodeComputeValue.exit ], [ %.val30, %37 ]
  %71 = lshr i32 %.val27, 4
  %72 = and i32 %71, 7
  %73 = lshr i32 %.val27, 7
  %74 = add nuw nsw i32 %.134, 8
  %narrow.i = add nuw nsw i32 %74, %73
  %75 = add nuw nsw i32 %narrow.i, %72
  %76 = icmp slt i32 %75, %70
  br i1 %76, label %.lr.ph35, label %.critedge2, !llvm.loop !60

.critedge2:                                       ; preds = %.lr.ph35, %69, %.critedge
  ret void
}